; Function Attrs: nounwind uwtable
define internal fastcc void @add_pax_attr_time(ptr noundef %0, ptr noundef %1, i64 noundef %2, i64 noundef %3) unnamed_addr #0 {
  %5 = alloca [50 x i8], align 16
  %6 = getelementptr inbounds nuw i8, ptr %5, i64 49
  store i8 0, ptr %6, align 1
  br label %7

7:                                                ; preds = %4, %7
  %.01725 = phi i32 [ 10, %4 ], [ %10, %7 ]
  %.02124 = phi i64 [ %3, %4 ], [ %9, %7 ]
  %8 = urem i64 %.02124, 10
  %9 = udiv i64 %.02124, 10
  %10 = add nsw i32 %.01725, -1
  %11 = icmp ne i32 %10, 0
  %12 = icmp eq i64 %8, 0
  %13 = select i1 %11, i1 %12, i1 false
  br i1 %13, label %7, label %14, !llvm.loop !18

14:                                               ; preds = %7
  br i1 %11, label %.preheader, label %24

.preheader:                                       ; preds = %14
  %15 = icmp sgt i32 %.01725, 1
  br i1 %15, label %.lr.ph, label %._crit_edge

.lr.ph:                                           ; preds = %.preheader, %.lr.ph
  %.129 = phi ptr [ %18, %.lr.ph ], [ %6, %.preheader ]
  %.11828 = phi i32 [ %21, %.lr.ph ], [ %10, %.preheader ]
  %.12027.in = phi i64 [ %19, %.lr.ph ], [ %8, %.preheader ]
  %.12226 = phi i64 [ %20, %.lr.ph ], [ %9, %.preheader ]
  %16 = getelementptr inbounds nuw [11 x i8], ptr @.str.58, i64 0, i64 %.12027.in
  %17 = load i8, ptr %16, align 1
  %18 = getelementptr inbounds i8, ptr %.129, i64 -1
  store i8 %17, ptr %18, align 1
  %19 = urem i64 %.12226, 10
  %20 = udiv i64 %.12226, 10
  %21 = add nsw i32 %.11828, -1
  %22 = icmp samesign ugt i32 %.11828, 1
  br i1 %22, label %.lr.ph, label %._crit_edge, !llvm.loop !19

._crit_edge:                                      ; preds = %.lr.ph, %.preheader
  %.1.lcssa = phi ptr [ %6, %.preheader ], [ %18, %.lr.ph ]
  %23 = getelementptr inbounds i8, ptr %.1.lcssa, i64 -1
  store i8 46, ptr %23, align 1
  br label %24

24:                                               ; preds = %._crit_edge, %14
  %.0 = phi ptr [ %23, %._crit_edge ], [ %6, %14 ]
  %.0.i = tail call i64 @llvm.abs.i64(i64 %2, i1 false)
  br label %25

25:                                               ; preds = %25, %24
  %.09.i = phi ptr [ %.0, %24 ], [ %29, %25 ]
  %.1.i = phi i64 [ %.0.i, %24 ], [ %30, %25 ]
  %26 = urem i64 %.1.i, 10
  %27 = getelementptr inbounds nuw [11 x i8], ptr @.str.58, i64 0, i64 %26
  %28 = load i8, ptr %27, align 1
  %29 = getelementptr inbounds i8, ptr %.09.i, i64 -1
  store i8 %28, ptr %29, align 1
  %30 = udiv i64 %.1.i, 10
  %.not.i = icmp ult i64 %.1.i, 10
  br i1 %.not.i, label %31, label %25, !llvm.loop !17

31:                                               ; preds = %25
  %32 = icmp slt i64 %2, 0
  br i1 %32, label %33, label %format_int.exit

33:                                               ; preds = %31
  %34 = getelementptr inbounds i8, ptr %.09.i, i64 -2
  store i8 45, ptr %34, align 1
  br label %format_int.exit

format_int.exit:                                  ; preds = %31, %33
  %.110.i = phi ptr [ %34, %33 ], [ %29, %31 ]
  %35 = call i64 @strlen(ptr noundef nonnull dereferenceable(1) %.110.i) #17
  call fastcc void @add_pax_attr_binary(ptr noundef %0, ptr noundef %1, ptr noundef nonnull %.110.i, i64 noundef %35)
  ret void
}